; Function Attrs: nounwind uwtable
define internal noundef i32 @update_thread_context(ptr noundef readonly captures(none) %0, ptr noundef readonly captures(none) %1) #0 {
  %3 = getelementptr inbounds nuw i8, ptr %1, i64 32
  %4 = load ptr, ptr %3, align 8, !tbaa !4
  %5 = getelementptr inbounds nuw i8, ptr %0, i64 32
  %6 = load ptr, ptr %5, align 8, !tbaa !4
  %7 = getelementptr inbounds nuw i8, ptr %6, i64 40
  %8 = getelementptr inbounds nuw i8, ptr %4, i64 40
  %9 = load ptr, ptr %8, align 8, !tbaa !27
  tail call void @av_refstruct_replace(ptr noundef nonnull %7, ptr noundef %9) #12
  %10 = getelementptr inbounds nuw i8, ptr %6, i64 32
  %11 = getelementptr inbounds nuw i8, ptr %4, i64 32
  %12 = load ptr, ptr %11, align 8, !tbaa !34
  tail call void @av_refstruct_replace(ptr noundef nonnull %10, ptr noundef %12) #12
  %13 = getelementptr inbounds nuw i8, ptr %4, i64 64
  %14 = load i32, ptr %13, align 8, !tbaa !35
  %15 = getelementptr inbounds nuw i8, ptr %6, i64 64
  store i32 %14, ptr %15, align 8, !tbaa !35
  ret i32 0
}